; Function Attrs: mustprogress uwtable
define dso_local noundef double @_ZNK8V3Number8toDoubleEv(ptr noundef nonnull readonly align 8 captures(none) dereferenceable(56) %0) #3 align 2 {
  %2 = getelementptr inbounds nuw i8, ptr %0, i64 36
  %3 = load i8, ptr %2, align 4, !tbaa !40
  %4 = icmp ne i8 %3, 2
  %5 = getelementptr inbounds nuw i8, ptr %0, i64 32
  %6 = load i32, ptr %5, align 8
  %7 = icmp ne i32 %6, 64
  %or.cond = select i1 %4, i1 true, i1 %7
  br i1 %or.cond, label %.critedge, label %_ZNK12V3NumberData3numEv.exit3, !prof !184

.critedge:                                        ; preds = %1
  %8 = tail call noundef nonnull align 8 dereferenceable(112) ptr @_ZN7V3Error19v3errorPrepFileLineB5cxx11E11V3ErrorCodePKci(i8 4, ptr noundef nonnull @.str.15, i32 noundef 951)
  %9 = tail call noundef nonnull align 8 dereferenceable(112) ptr @_ZN7V3Error10v3errorStrB5cxx11Ev()
  %10 = tail call noundef nonnull align 8 dereferenceable(8) ptr @_ZStlsISt11char_traitsIcEERSt13basic_ostreamIcT_ES5_PKc(ptr noundef nonnull align 8 dereferenceable(8) %9, ptr noundef nonnull @.str.46)
  tail call void @_ZNK8V3Number15v3errorEndFatalERKNSt7__cxx1119basic_ostringstreamIcSt11char_traitsIcESaIcEEE(ptr noundef nonnull align 8 dereferenceable(56) %0, ptr noundef nonnull align 8 dereferenceable(112) %10) #34
  unreachable

_ZNK12V3NumberData3numEv.exit3:                   ; preds = %1
  %11 = load i32, ptr %0, align 8, !tbaa !44
  %.sroa.0.0.insert.ext = zext i32 %11 to i64
  %12 = getelementptr inbounds nuw i8, ptr %0, i64 8
  %13 = load i32, ptr %12, align 8, !tbaa !44
  %.sroa.0.4.insert.ext = zext i32 %13 to i64
  %.sroa.0.4.insert.shift = shl nuw i64 %.sroa.0.4.insert.ext, 32
  %.sroa.0.4.insert.insert = or disjoint i64 %.sroa.0.4.insert.shift, %.sroa.0.0.insert.ext
  %14 = bitcast i64 %.sroa.0.4.insert.insert to double
  ret double %14
}